(dp0
S'[ 1.  0.  0.  0.  0.  1.  0.  1.  0.  0.  1.  0.]'
p1
I94
sS'[ 0.  0.  1.  0.  0.  1.  0.  0.  0.  0.  1.  0.]'
p2
I0
sS'[ 0.  0.  0.  1.  1.  0.  0.  0.  1.  0.  0.  1.]'
p3
I7
sS'[ 1.  0.  0.  0.  1.  0.  0.  1.  0.  0.  0.  0.]'
p4
I3
sS'[ 1.  0.  0.  0.  1.  0.  0.  1.  0.  1.  0.  0.]'
p5
I5
sS'[ 0.  0.  0.  1.  0.  0.  1.  0.  0.  0.  0.  1.]'
p6
I90
sS'[ 0.  0.  0.  0.  1.  0.  1.  1.  0.  0.  0.  1.]'
p7
I8
sS'[ 0.  0.  0.  0.  1.  0.  0.  1.  0.  0.  0.  1.]'
p8
I9
sS'[ 1.  0.  1.  0.  0.  0.  0.  1.  0.  0.  0.  0.]'
p9
I10
sS'[ 0.  0.  1.  0.  0.  1.  0.  0.  0.  1.  0.  1.]'
p10
I68
sS'[ 0.  1.  0.  0.  1.  0.  1.  0.  0.  1.  0.  0.]'
p11
I88
sS'[ 0.  0.  0.  0.  1.  0.  1.  0.  0.  1.  0.  1.]'
p12
I12
sS'[ 0.  0.  1.  0.  0.  0.  0.  1.  1.  0.  0.  0.]'
p13
I13
sS'[ 0.  0.  1.  1.  0.  0.  0.  0.  1.  0.  0.  0.]'
p14
I14
sS'[ 1.  0.  1.  0.  0.  1.  0.  0.  0.  1.  0.  0.]'
p15
I81
sS'[ 0.  0.  1.  0.  1.  0.  0.  1.  0.  1.  0.  0.]'
p16
I16
sS'[ 0.  1.  0.  0.  0.  0.  0.  1.  0.  0.  1.  0.]'
p17
I17
sS'[ 0.  0.  1.  0.  0.  0.  0.  1.  0.  0.  0.  1.]'
p18
I64
sS'[ 0.  1.  0.  0.  1.  0.  0.  1.  0.  0.  0.  0.]'
p19
I19
sS'[ 0.  0.  0.  0.  0.  0.  0.  0.  0.  0.  0.  0.]'
p20
I20
sS'[ 0.  0.  1.  0.  0.  0.  0.  1.  0.  1.  0.  1.]'
p21
I21
sS'[ 0.  1.  0.  1.  0.  0.  0.  0.  1.  0.  1.  0.]'
p22
I38
sS'[ 0.  0.  1.  0.  0.  1.  0.  0.  1.  0.  0.  0.]'
p23
I25
sS'[ 0.  1.  0.  1.  0.  0.  1.  0.  0.  0.  1.  0.]'
p24
I26
sS'[ 1.  0.  0.  0.  1.  0.  0.  0.  0.  1.  0.  0.]'
p25
I51
sS'[ 0.  0.  1.  0.  0.  0.  0.  0.  1.  0.  0.  1.]'
p26
I42
sS'[ 1.  0.  0.  0.  1.  0.  1.  0.  0.  0.  0.  1.]'
p27
I29
sS'[ 0.  1.  0.  0.  1.  0.  0.  0.  0.  1.  0.  0.]'
p28
I47
sS'[ 0.  0.  0.  1.  0.  0.  1.  0.  0.  1.  0.  1.]'
p29
I31
sS'[ 1.  0.  0.  1.  0.  0.  0.  1.  1.  0.  0.  0.]'
p30
I32
sS'[ 1.  0.  0.  0.  0.  1.  0.  1.  0.  0.  0.  0.]'
p31
I33
sS'[ 1.  0.  0.  0.  0.  1.  0.  1.  0.  1.  0.  0.]'
p32
I35
sS'[ 0.  0.  0.  0.  0.  1.  0.  0.  1.  0.  0.  1.]'
p33
I62
sS'[ 1.  0.  0.  0.  1.  1.  0.  1.  0.  0.  0.  0.]'
p34
I2
sS'[ 0.  0.  0.  1.  0.  1.  0.  1.  0.  0.  1.  0.]'
p35
I39
sS'[ 0.  1.  0.  0.  0.  1.  0.  1.  0.  0.  1.  0.]'
p36
I66
sS'[ 0.  0.  0.  0.  1.  1.  0.  0.  0.  0.  1.  0.]'
p37
I41
sS'[ 1.  0.  0.  0.  0.  0.  1.  0.  0.  1.  0.  0.]'
p38
I28
sS'[ 0.  1.  0.  0.  0.  1.  0.  0.  1.  0.  0.  0.]'
p39
I43
sS'[ 0.  0.  1.  0.  0.  0.  1.  0.  0.  1.  0.  0.]'
p40
I27
sS'[ 0.  0.  0.  0.  1.  0.  0.  1.  0.  1.  0.  1.]'
p41
I44
sS'[ 1.  0.  1.  0.  0.  0.  0.  1.  0.  1.  0.  0.]'
p42
I45
sS'[ 0.  0.  1.  1.  0.  0.  0.  1.  0.  0.  1.  0.]'
p43
I46
sS'[ 0.  1.  0.  0.  0.  0.  1.  0.  0.  1.  0.  0.]'
p44
I30
sS'[ 0.  0.  1.  0.  1.  0.  0.  0.  0.  1.  0.  1.]'
p45
I48
sS'[ 0.  0.  0.  0.  1.  0.  0.  0.  0.  1.  0.  1.]'
p46
I49
sS'[ 0.  0.  0.  1.  0.  0.  0.  0.  1.  0.  1.  0.]'
p47
I56
sS'[ 1.  0.  0.  1.  0.  0.  0.  0.  0.  1.  0.  0.]'
p48
I50
sS'[ 0.  0.  1.  0.  1.  1.  0.  0.  0.  1.  0.  0.]'
p49
I24
sS'[ 1.  0.  0.  0.  0.  1.  0.  0.  0.  0.  0.  1.]'
p50
I53
sS'[ 1.  0.  1.  0.  0.  1.  0.  0.  1.  0.  0.  0.]'
p51
I22
sS'[ 0.  0.  1.  0.  0.  0.  1.  0.  0.  1.  0.  1.]'
p52
I55
sS'[ 0.  0.  0.  1.  0.  0.  1.  0.  0.  0.  1.  0.]'
p53
I113
sS'[ 1.  0.  0.  0.  0.  1.  0.  0.  0.  1.  0.  0.]'
p54
I57
sS'[ 1.  0.  1.  0.  1.  0.  0.  0.  0.  1.  0.  0.]'
p55
I4
sS'[ 1.  0.  0.  1.  0.  0.  0.  1.  0.  0.  1.  0.]'
p56
I59
sS'[ 0.  0.  0.  1.  0.  0.  0.  1.  0.  0.  1.  0.]'
p57
I107
sS'[ 0.  0.  1.  0.  1.  0.  0.  0.  0.  1.  1.  0.]'
p58
I60
sS'[ 0.  0.  1.  0.  0.  0.  1.  1.  0.  0.  0.  1.]'
p59
I61
sS'[ 0.  1.  0.  0.  1.  0.  0.  0.  1.  0.  0.  1.]'
p60
I110
sS'[ 1.  0.  0.  0.  1.  0.  0.  0.  0.  1.  0.  1.]'
p61
I91
sS'[ 0.  0.  1.  0.  0.  1.  0.  0.  0.  1.  0.  0.]'
p62
I18
sS'[ 0.  1.  0.  0.  0.  0.  1.  0.  0.  0.  0.  1.]'
p63
I65
sS'[ 0.  1.  0.  1.  0.  0.  0.  1.  0.  0.  1.  0.]'
p64
I40
sS'[ 1.  0.  0.  0.  1.  0.  0.  1.  0.  0.  0.  1.]'
p65
I37
sS'[ 1.  0.  0.  1.  0.  0.  0.  0.  1.  0.  0.  0.]'
p66
I67
sS'[ 0.  0.  1.  0.  0.  0.  0.  1.  0.  1.  0.  0.]'
p67
I69
sS'[ 0.  0.  1.  0.  0.  0.  0.  1.  0.  1.  1.  0.]'
p68
I71
sS'[ 0.  0.  1.  0.  1.  0.  0.  1.  0.  0.  0.  1.]'
p69
I72
sS'[ 1.  0.  1.  1.  0.  0.  0.  1.  0.  0.  0.  0.]'
p70
I15
sS'[ 0.  0.  1.  0.  0.  1.  0.  1.  0.  0.  1.  0.]'
p71
I74
sS'[ 0.  1.  0.  0.  0.  0.  1.  0.  1.  0.  0.  0.]'
p72
I23
sS'[ 0.  1.  0.  0.  0.  1.  0.  0.  1.  0.  0.  1.]'
p73
I76
sS'[ 0.  1.  0.  0.  1.  0.  0.  0.  1.  1.  0.  0.]'
p74
I77
sS'[ 1.  1.  0.  0.  0.  1.  0.  0.  1.  0.  0.  0.]'
p75
I78
sS'[ 1.  0.  0.  0.  1.  0.  0.  1.  0.  0.  1.  0.]'
p76
I79
sS'[ 1.  0.  0.  0.  0.  1.  0.  0.  0.  0.  1.  0.]'
p77
I80
sS'[ 0.  0.  1.  0.  0.  0.  1.  0.  0.  0.  0.  1.]'
p78
I92
sS'[ 0.  0.  1.  0.  0.  1.  0.  0.  0.  0.  0.  1.]'
p79
I82
sS'[ 0.  1.  0.  0.  0.  0.  1.  0.  0.  0.  1.  0.]'
p80
I115
sS'[ 1.  0.  0.  1.  0.  1.  0.  0.  0.  1.  0.  0.]'
p81
I83
sS'[ 1.  0.  0.  0.  0.  0.  1.  1.  0.  1.  0.  0.]'
p82
I84
sS'[ 0.  0.  1.  0.  1.  1.  0.  0.  0.  0.  0.  1.]'
p83
I85
sS'[ 0.  1.  0.  0.  1.  0.  0.  1.  0.  1.  0.  0.]'
p84
I54
sS'[ 1.  0.  1.  0.  1.  0.  0.  1.  0.  0.  0.  0.]'
p85
I87
sS'[ 0.  0.  0.  1.  0.  0.  1.  0.  1.  0.  0.  1.]'
p86
I1
sS'[ 0.  0.  1.  0.  0.  1.  0.  0.  1.  0.  1.  0.]'
p87
I89
sS'[ 0.  0.  0.  1.  0.  0.  0.  0.  1.  0.  0.  1.]'
p88
I36
sS'[ 1.  0.  0.  0.  1.  1.  0.  0.  0.  1.  0.  0.]'
p89
I6
sS'[ 0.  0.  0.  0.  1.  0.  0.  0.  1.  0.  0.  1.]'
p90
I73
sS'[ 1.  0.  0.  1.  0.  0.  0.  1.  0.  0.  0.  0.]'
p91
I93
sS'[ 1.  0.  0.  1.  0.  1.  0.  0.  0.  0.  1.  0.]'
p92
I70
sS'[ 1.  0.  0.  1.  0.  0.  0.  1.  0.  1.  0.  0.]'
p93
I34
sS'[ 1.  0.  0.  0.  1.  0.  1.  0.  0.  1.  0.  0.]'
p94
I109
sS'[ 1.  0.  1.  0.  0.  0.  0.  1.  0.  0.  0.  1.]'
p95
I96
sS'[ 0.  1.  0.  0.  1.  0.  1.  0.  0.  0.  1.  0.]'
p96
I95
sS'[ 1.  0.  0.  1.  0.  0.  1.  0.  1.  0.  0.  0.]'
p97
I97
sS'[ 0.  0.  1.  0.  0.  0.  0.  1.  0.  0.  1.  0.]'
p98
I98
sS'[ 1.  0.  1.  0.  0.  0.  0.  1.  0.  0.  1.  0.]'
p99
I99
sS'[ 0.  0.  1.  0.  1.  0.  0.  0.  0.  1.  0.  0.]'
p100
I100
sS'[ 0.  0.  0.  0.  1.  0.  1.  0.  1.  0.  0.  1.]'
p101
I11
sS'[ 1.  0.  0.  1.  0.  1.  0.  0.  1.  0.  0.  0.]'
p102
I102
sS'[ 1.  0.  1.  0.  0.  1.  0.  0.  0.  0.  1.  0.]'
p103
I86
sS'[ 1.  0.  1.  0.  0.  0.  1.  0.  0.  1.  0.  0.]'
p104
I103
sS'[ 1.  0.  0.  0.  0.  1.  0.  0.  1.  0.  0.  0.]'
p105
I104
sS'[ 1.  0.  0.  0.  0.  1.  0.  0.  0.  1.  1.  0.]'
p106
I105
sS'[ 0.  0.  1.  0.  1.  0.  0.  0.  1.  0.  0.  1.]'
p107
I106
sS'[ 0.  1.  0.  0.  0.  1.  0.  0.  0.  0.  1.  0.]'
p108
I52
sS'[ 0.  0.  1.  0.  0.  0.  0.  0.  1.  1.  0.  1.]'
p109
I108
sS'[ 0.  0.  1.  0.  0.  1.  0.  1.  0.  0.  0.  1.]'
p110
I58
sS'[ 0.  1.  1.  0.  0.  0.  1.  0.  0.  0.  0.  1.]'
p111
I63
sS'[ 1.  0.  1.  0.  0.  1.  0.  1.  0.  0.  0.  0.]'
p112
I111
sS'[ 0.  1.  0.  0.  1.  0.  0.  0.  0.  1.  0.  1.]'
p113
I112
sS'[ 0.  1.  0.  0.  1.  0.  1.  0.  0.  0.  0.  1.]'
p114
I114
sS'[ 0.  1.  0.  0.  1.  0.  0.  0.  1.  0.  0.  0.]'
p115
I75
sS'[ 0.  1.  0.  1.  0.  0.  0.  0.  1.  0.  0.  1.]'
p116
I116
sS'[ 0.  0.  0.  1.  0.  0.  1.  0.  0.  1.  0.  0.]'
p117
I117
sS'[ 0.  0.  1.  0.  0.  1.  0.  0.  0.  1.  1.  0.]'
p118
I118
sS'[ 0.  0.  1.  0.  0.  1.  0.  1.  0.  1.  0.  0.]'
p119
I101
s.