(lp0
S'[ 0.  0.  1.  0.  0.  1.  0.  0.  0.  0.  1.  0.]'
p1
aS'[ 0.  0.  0.  1.  0.  0.  1.  0.  1.  0.  0.  1.]'
p2
aS'[ 1.  0.  0.  0.  1.  1.  0.  1.  0.  0.  0.  0.]'
p3
aS'[ 1.  0.  0.  0.  1.  0.  0.  1.  0.  0.  0.  0.]'
p4
aS'[ 1.  0.  1.  0.  1.  0.  0.  0.  0.  1.  0.  0.]'
p5
aS'[ 1.  0.  0.  0.  1.  0.  0.  1.  0.  1.  0.  0.]'
p6
aS'[ 1.  0.  0.  0.  1.  1.  0.  0.  0.  1.  0.  0.]'
p7
aS'[ 0.  0.  0.  1.  1.  0.  0.  0.  1.  0.  0.  1.]'
p8
aS'[ 0.  0.  0.  0.  1.  0.  1.  1.  0.  0.  0.  1.]'
p9
aS'[ 0.  0.  0.  0.  1.  0.  0.  1.  0.  0.  0.  1.]'
p10
aS'[ 1.  0.  1.  0.  0.  0.  0.  1.  0.  0.  0.  0.]'
p11
aS'[ 0.  0.  0.  0.  1.  0.  1.  0.  1.  0.  0.  1.]'
p12
aS'[ 0.  0.  0.  0.  1.  0.  1.  0.  0.  1.  0.  1.]'
p13
aS'[ 0.  0.  1.  0.  0.  0.  0.  1.  1.  0.  0.  0.]'
p14
aS'[ 0.  0.  1.  1.  0.  0.  0.  0.  1.  0.  0.  0.]'
p15
aS'[ 1.  0.  1.  1.  0.  0.  0.  1.  0.  0.  0.  0.]'
p16
aS'[ 0.  0.  1.  0.  1.  0.  0.  1.  0.  1.  0.  0.]'
p17
aS'[ 0.  1.  0.  0.  0.  0.  0.  1.  0.  0.  1.  0.]'
p18
aS'[ 0.  0.  1.  0.  0.  1.  0.  0.  0.  1.  0.  0.]'
p19
aS'[ 0.  1.  0.  0.  1.  0.  0.  1.  0.  0.  0.  0.]'
p20
aS'[ 0.  0.  0.  0.  0.  0.  0.  0.  0.  0.  0.  0.]'
p21
aS'[ 0.  0.  1.  0.  0.  0.  0.  1.  0.  1.  0.  1.]'
p22
aS'[ 1.  0.  1.  0.  0.  1.  0.  0.  1.  0.  0.  0.]'
p23
aS'[ 0.  1.  0.  0.  0.  0.  1.  0.  1.  0.  0.  0.]'
p24
aS'[ 0.  0.  1.  0.  1.  1.  0.  0.  0.  1.  0.  0.]'
p25
aS'[ 0.  0.  1.  0.  0.  1.  0.  0.  1.  0.  0.  0.]'
p26
aS'[ 0.  1.  0.  1.  0.  0.  1.  0.  0.  0.  1.  0.]'
p27
aS'[ 0.  0.  1.  0.  0.  0.  1.  0.  0.  1.  0.  0.]'
p28
aS'[ 1.  0.  0.  0.  0.  0.  1.  0.  0.  1.  0.  0.]'
p29
aS'[ 1.  0.  0.  0.  1.  0.  1.  0.  0.  0.  0.  1.]'
p30
aS'[ 0.  1.  0.  0.  0.  0.  1.  0.  0.  1.  0.  0.]'
p31
aS'[ 0.  0.  0.  1.  0.  0.  1.  0.  0.  1.  0.  1.]'
p32
aS'[ 1.  0.  0.  1.  0.  0.  0.  1.  1.  0.  0.  0.]'
p33
aS'[ 1.  0.  0.  0.  0.  1.  0.  1.  0.  0.  0.  0.]'
p34
aS'[ 1.  0.  0.  1.  0.  0.  0.  1.  0.  1.  0.  0.]'
p35
aS'[ 1.  0.  0.  0.  0.  1.  0.  1.  0.  1.  0.  0.]'
p36
aS'[ 0.  0.  0.  1.  0.  0.  0.  0.  1.  0.  0.  1.]'
p37
aS'[ 1.  0.  0.  0.  1.  0.  0.  1.  0.  0.  0.  1.]'
p38
aS'[ 0.  1.  0.  1.  0.  0.  0.  0.  1.  0.  1.  0.]'
p39
aS'[ 0.  0.  0.  1.  0.  1.  0.  1.  0.  0.  1.  0.]'
p40
aS'[ 0.  1.  0.  1.  0.  0.  0.  1.  0.  0.  1.  0.]'
p41
aS'[ 0.  0.  0.  0.  1.  1.  0.  0.  0.  0.  1.  0.]'
p42
aS'[ 0.  0.  1.  0.  0.  0.  0.  0.  1.  0.  0.  1.]'
p43
aS'[ 0.  1.  0.  0.  0.  1.  0.  0.  1.  0.  0.  0.]'
p44
aS'[ 0.  0.  0.  0.  1.  0.  0.  1.  0.  1.  0.  1.]'
p45
aS'[ 1.  0.  1.  0.  0.  0.  0.  1.  0.  1.  0.  0.]'
p46
aS'[ 0.  0.  1.  1.  0.  0.  0.  1.  0.  0.  1.  0.]'
p47
aS'[ 0.  1.  0.  0.  1.  0.  0.  0.  0.  1.  0.  0.]'
p48
aS'[ 0.  0.  1.  0.  1.  0.  0.  0.  0.  1.  0.  1.]'
p49
aS'[ 0.  0.  0.  0.  1.  0.  0.  0.  0.  1.  0.  1.]'
p50
aS'[ 1.  0.  0.  1.  0.  0.  0.  0.  0.  1.  0.  0.]'
p51
aS'[ 1.  0.  0.  0.  1.  0.  0.  0.  0.  1.  0.  0.]'
p52
aS'[ 0.  1.  0.  0.  0.  1.  0.  0.  0.  0.  1.  0.]'
p53
aS'[ 1.  0.  0.  0.  0.  1.  0.  0.  0.  0.  0.  1.]'
p54
aS'[ 0.  1.  0.  0.  1.  0.  0.  1.  0.  1.  0.  0.]'
p55
aS'[ 0.  0.  1.  0.  0.  0.  1.  0.  0.  1.  0.  1.]'
p56
aS'[ 0.  0.  0.  1.  0.  0.  0.  0.  1.  0.  1.  0.]'
p57
aS'[ 1.  0.  0.  0.  0.  1.  0.  0.  0.  1.  0.  0.]'
p58
aS'[ 0.  0.  1.  0.  0.  1.  0.  1.  0.  0.  0.  1.]'
p59
aS'[ 1.  0.  0.  1.  0.  0.  0.  1.  0.  0.  1.  0.]'
p60
aS'[ 0.  0.  1.  0.  1.  0.  0.  0.  0.  1.  1.  0.]'
p61
aS'[ 0.  0.  1.  0.  0.  0.  1.  1.  0.  0.  0.  1.]'
p62
aS'[ 0.  0.  0.  0.  0.  1.  0.  0.  1.  0.  0.  1.]'
p63
aS'[ 0.  1.  1.  0.  0.  0.  1.  0.  0.  0.  0.  1.]'
p64
aS'[ 0.  0.  1.  0.  0.  0.  0.  1.  0.  0.  0.  1.]'
p65
aS'[ 0.  1.  0.  0.  0.  0.  1.  0.  0.  0.  0.  1.]'
p66
aS'[ 0.  1.  0.  0.  0.  1.  0.  1.  0.  0.  1.  0.]'
p67
aS'[ 1.  0.  0.  1.  0.  0.  0.  0.  1.  0.  0.  0.]'
p68
aS'[ 0.  0.  1.  0.  0.  1.  0.  0.  0.  1.  0.  1.]'
p69
aS'[ 0.  0.  1.  0.  0.  0.  0.  1.  0.  1.  0.  0.]'
p70
aS'[ 1.  0.  0.  1.  0.  1.  0.  0.  0.  0.  1.  0.]'
p71
aS'[ 0.  0.  1.  0.  0.  0.  0.  1.  0.  1.  1.  0.]'
p72
aS'[ 0.  0.  1.  0.  1.  0.  0.  1.  0.  0.  0.  1.]'
p73
aS'[ 0.  0.  0.  0.  1.  0.  0.  0.  1.  0.  0.  1.]'
p74
aS'[ 0.  0.  1.  0.  0.  1.  0.  1.  0.  0.  1.  0.]'
p75
aS'[ 0.  1.  0.  0.  1.  0.  0.  0.  1.  0.  0.  0.]'
p76
aS'[ 0.  1.  0.  0.  0.  1.  0.  0.  1.  0.  0.  1.]'
p77
aS'[ 0.  1.  0.  0.  1.  0.  0.  0.  1.  1.  0.  0.]'
p78
aS'[ 1.  1.  0.  0.  0.  1.  0.  0.  1.  0.  0.  0.]'
p79
aS'[ 1.  0.  0.  0.  1.  0.  0.  1.  0.  0.  1.  0.]'
p80
aS'[ 1.  0.  0.  0.  0.  1.  0.  0.  0.  0.  1.  0.]'
p81
aS'[ 1.  0.  1.  0.  0.  1.  0.  0.  0.  1.  0.  0.]'
p82
aS'[ 0.  0.  1.  0.  0.  1.  0.  0.  0.  0.  0.  1.]'
p83
aS'[ 1.  0.  0.  1.  0.  1.  0.  0.  0.  1.  0.  0.]'
p84
aS'[ 1.  0.  0.  0.  0.  0.  1.  1.  0.  1.  0.  0.]'
p85
aS'[ 0.  0.  1.  0.  1.  1.  0.  0.  0.  0.  0.  1.]'
p86
aS'[ 1.  0.  1.  0.  0.  1.  0.  0.  0.  0.  1.  0.]'
p87
aS'[ 1.  0.  1.  0.  1.  0.  0.  1.  0.  0.  0.  0.]'
p88
aS'[ 0.  1.  0.  0.  1.  0.  1.  0.  0.  1.  0.  0.]'
p89
aS'[ 0.  0.  1.  0.  0.  1.  0.  0.  1.  0.  1.  0.]'
p90
aS'[ 0.  0.  0.  1.  0.  0.  1.  0.  0.  0.  0.  1.]'
p91
aS'[ 1.  0.  0.  0.  1.  0.  0.  0.  0.  1.  0.  1.]'
p92
aS'[ 0.  0.  1.  0.  0.  0.  1.  0.  0.  0.  0.  1.]'
p93
aS'[ 1.  0.  0.  1.  0.  0.  0.  1.  0.  0.  0.  0.]'
p94
aS'[ 1.  0.  0.  0.  0.  1.  0.  1.  0.  0.  1.  0.]'
p95
aS'[ 0.  1.  0.  0.  1.  0.  1.  0.  0.  0.  1.  0.]'
p96
aS'[ 1.  0.  1.  0.  0.  0.  0.  1.  0.  0.  0.  1.]'
p97
aS'[ 1.  0.  0.  1.  0.  0.  1.  0.  1.  0.  0.  0.]'
p98
aS'[ 0.  0.  1.  0.  0.  0.  0.  1.  0.  0.  1.  0.]'
p99
aS'[ 1.  0.  1.  0.  0.  0.  0.  1.  0.  0.  1.  0.]'
p100
aS'[ 0.  0.  1.  0.  1.  0.  0.  0.  0.  1.  0.  0.]'
p101
aS'[ 0.  0.  1.  0.  0.  1.  0.  1.  0.  1.  0.  0.]'
p102
aS'[ 1.  0.  0.  1.  0.  1.  0.  0.  1.  0.  0.  0.]'
p103
aS'[ 1.  0.  1.  0.  0.  0.  1.  0.  0.  1.  0.  0.]'
p104
aS'[ 1.  0.  0.  0.  0.  1.  0.  0.  1.  0.  0.  0.]'
p105
aS'[ 1.  0.  0.  0.  0.  1.  0.  0.  0.  1.  1.  0.]'
p106
aS'[ 0.  0.  1.  0.  1.  0.  0.  0.  1.  0.  0.  1.]'
p107
aS'[ 0.  0.  0.  1.  0.  0.  0.  1.  0.  0.  1.  0.]'
p108
aS'[ 0.  0.  1.  0.  0.  0.  0.  0.  1.  1.  0.  1.]'
p109
aS'[ 1.  0.  0.  0.  1.  0.  1.  0.  0.  1.  0.  0.]'
p110
aS'[ 0.  1.  0.  0.  1.  0.  0.  0.  1.  0.  0.  1.]'
p111
aS'[ 1.  0.  1.  0.  0.  1.  0.  1.  0.  0.  0.  0.]'
p112
aS'[ 0.  1.  0.  0.  1.  0.  0.  0.  0.  1.  0.  1.]'
p113
aS'[ 0.  0.  0.  1.  0.  0.  1.  0.  0.  0.  1.  0.]'
p114
aS'[ 0.  1.  0.  0.  1.  0.  1.  0.  0.  0.  0.  1.]'
p115
aS'[ 0.  1.  0.  0.  0.  0.  1.  0.  0.  0.  1.  0.]'
p116
aS'[ 0.  1.  0.  1.  0.  0.  0.  0.  1.  0.  0.  1.]'
p117
aS'[ 0.  0.  0.  1.  0.  0.  1.  0.  0.  1.  0.  0.]'
p118
aS'[ 0.  0.  1.  0.  0.  1.  0.  0.  0.  1.  1.  0.]'
p119
a.